(dp0
V\u05dc\u05d9\u05e1\u05d4
p1
(V16.5937545
p2
V51.8419861
p3
tp4
sV\u05d0\u05e9\u05db\u05d5\u05dc\u05d5\u05ea
p5
(V34.9048560
p6
V31.3911710
p7
tp8
sV\u05d0\u05e4\u05e8\u05d9\u05e7\u05d4
p9
(V34.5085230
p10
V-8.7831950
p11
tp12
sV\u05ea\u05dc\u05de\u05d9\u05dd
p13
(V34.6719980
p14
V31.5634160
p15
tp16
sV\u05d1\u05e0\u05d2\u05e7\u05d5\u05e7
p17
(V100.5017651
p18
V13.7563309
p19
tp20
sV\u05d3\u05d9\u05de\u05d5\u05e0\u05d4
p21
(V35.0333630
p22
V31.0694190
p23
tp24
sV\u05de\u05e4\u05e8\u05e5 \u05d0\u05d9\u05dc\u05ea
p25
(V34.7298765
p26
V28.6929261
p27
tp28
sV\u05d4\u05e8\u05e6\u05dc\u05d9\u05d4
p29
(V34.8446750
p30
V32.1624130
p31
tp32
sV\u05d8\u05e7\u05e1\u05e1
p33
(V-99.9018131
p34
V31.9685988
p35
tp36
sV\u05d1\u05d9\u05ea \u05d0\u05dc\u05e4\u05d0
p37
(V35.4304990
p38
V32.5163570
p39
tp40
sV\u05d4\u05d5\u05dc\u05e0\u05d3
p41
(V5.2912660
p42
V52.1326330
p43
tp44
sV\u05d4\u05e8 \u05d4\u05e6\u05d5\u05e4\u05d9\u05dd
p45
(V35.2449342
p46
V31.7930604
p47
tp48
sV\u05de\u05e2\u05d5\u05df
p49
(V35.1638930
p50
V31.4145920
p51
tp52
sV\u05dc\u05d5\u05d1\u05df
p53
(V15.2893895
p54
V51.1179142
p55
tp56
sV\u05d4\u05e8 \u05e6\u05d9\u05d5\u05df
p57
(V35.2284626
p58
V31.7709233
p59
tp60
sV\u05e0\u05ea\u05e0\u05d9\u05d4
p61
(V34.8531960
p62
V32.3214580
p63
tp64
sV\u05e2\u05e8\u05d3
p65
(V35.2148620
p66
V31.2614470
p67
tp68
sV\u05db\u05e4\u05e8 \u05e1\u05d1\u05d0
p69
(V34.9076100
p70
V32.1781950
p71
tp72
sV\u05e0\u05d9\u05e1
p73
(V7.2619532
p74
V43.7101728
p75
tp76
sV\u05de\u05db\u05d4
p77
(V39.8579118
p78
V21.3890824
p79
tp80
sV\u05d4\u05d5\u05d5\u05d0\u05e0\u05d4
p81
(V-82.3665956
p82
V23.1135925
p83
tp84
sV\u05d0\u05d5\u05e7\u05e8\u05d0\u05d9\u05e0\u05d4
p85
(V31.1655800
p86
V48.3794330
p87
tp88
sV\u05d0\u05d1\u05df \u05d9\u05d4\u05d5\u05d3\u05d4
p89
(V34.8850870
p90
V32.2766480
p91
tp92
sV\u05d4\u05e8\u05dd
p93
(V-2.4492132
p94
V49.4728720
p95
tp96
sV\u05dc\u05e7\u05e1\u05d9\u05e0\u05d2\u05d8\u05d5\u05df
p97
(V-84.5037164
p98
V38.0405837
p99
tp100
sV\u05e0\u05d7\u05dc \u05d9\u05e8\u05e7\u05d5\u05df
p101
(V34.7889225
p102
V32.0980678
p103
tp104
sV\u05e4\u05e8\u05d3\u05e1\u05d9\u05d4
p105
(V34.9117310
p106
V32.3050110
p107
tp108
sV\u05e7\u05e6\u05d9\u05e8
p109
(V35.1087300
p110
V32.4851780
p111
tp112
sV\u05de\u05db\u05d5\u05e8\u05d4
p113
(V35.4236230
p114
V32.1641590
p115
tp116
sV\u05d1\u05d5\u05d6'\u05e2\u05d3
p117
(V-6.3932220
p118
V32.7691969
p119
tp120
sV\u05e6\u05d5\u05e8
p121
(V35.2037641
p122
V33.2704888
p123
tp124
sV\u05e7\u05e0\u05d9\u05d4
p125
(V37.9061930
p126
V-0.0235590
p127
tp128
sV\u05de\u05d9\u05d0\u05de\u05d9
p129
(V-80.1917902
p130
V25.7616798
p131
tp132
sV\u05d4\u05e8 \u05d4\u05d6\u05d9\u05ea\u05d9\u05dd
p133
(V35.2456983
p134
V31.7779317
p135
tp136
sV\u05e8\u05d0\u05e9 \u05d4\u05e2\u05d9\u05df
p137
(V34.9521770
p138
V32.0958380
p139
tp140
sV\u05e1\u05d9\u05e0\u05d9
p141
(V34.0000000
p142
V29.5000000
p143
tp144
sV\u05e7\u05dc\u05d9\u05e4\u05d5\u05e8\u05e0\u05d9\u05d4
p145
(V-119.4179324
p146
V36.7782610
p147
tp148
sV\u05d0\u05e9\u05e7\u05dc\u05d5\u05df
p149
(V34.5742523
p150
V31.6687885
p151
tp152
sV\u05d1\u05ea \u05d9\u05dd
p153
(V34.7480190
p154
V32.0131860
p155
tp156
sV\u05d9\u05d1\u05d5\u05dc
p157
(V34.3189520
p158
V31.1894580
p159
tp160
sV\u05d0\u05dc\u05e7
p161
(V22.3646629
p162
V53.8280529
p163
tp164
sV\u05d4\u05d5\u05d9
p165
(V5.2396656
p166
V50.5187153
p167
tp168
sV\u05d2\u05d1\u05e2
p169
(V35.3721600
p170
V32.5665300
p171
tp172
sV\u05de\u05d0\u05d9\u05d9\u05df
p173
(V-0.6209350
p174
V48.3061239
p175
tp176
sV\u05d0\u05dc \u05db\u05e3
p177
(V8.7095789
p178
V36.1679648
p179
tp180
sV\u05db\u05e4\u05e8 \u05d0\u05d5\u05e8\u05d9\u05d4
p181
(V34.9447570
p182
V31.7933990
p183
tp184
sV\u05d0\u05e8\u05e6\u05d5\u05ea \u05d4\u05d1\u05e8\u05d9\u05ea
p185
(V-95.7128910
p186
V37.0902400
p187
tp188
sV\u05d9\u05d4\u05d5\u05d3
p189
(V34.8870985
p190
V32.0303390
p191
tp192
sV\u05d0\u05dc\u05d9\u05e4\u05dc\u05d8
p193
(V35.5485160
p194
V32.9478340
p195
tp196
sV\u05d4\u05e8 \u05ea\u05d1\u05d5\u05e8
p197
(V35.3902089
p198
V32.6866112
p199
tp200
sV\u05e4\u05e8\u05d5
p201
(V-75.0151520
p202
V-9.1899670
p203
tp204
sV\u05d6\u05d0\u05e4\u05d5\u05e8\u05d9\u05d6'\u05d9\u05d4
p205
(V35.1395670
p206
V47.8388000
p207
tp208
sV\u05e4\u05e8\u05ea
p209
(V115.8604572
p210
V-31.9505269
p211
tp212
sV\u05d1\u05d5\u05db\u05e8\u05d4
p213
(V64.4555769
p214
V39.7680827
p215
tp216
sV\u05d0\u05e1\u05d9\u05d4
p217
(V100.6196553
p218
V34.0478630
p219
tp220
sV\u05e9\u05e8\u05d9\u05d3
p221
(V35.2247550
p222
V32.6630590
p223
tp224
sV\u05d0\u05d5\u05e4\u05e7\u05d9\u05dd
p225
(V34.6228240
p226
V31.3113370
p227
tp228
sV\u05d2'\u05ea
p229
(V35.0359140
p230
V32.3969300
p231
tp232
sV\u05e8\u05d7\u05d5\u05d1
p233
(V35.4895980
p234
V32.4510990
p235
tp236
sV\u05e4\u05d5\u05d6'\u05d5
p237
(V119.2964820
p238
V26.0744780
p239
tp240
sV\u05d4\u05d5\u05d3\u05d5
p241
(V78.9628800
p242
V20.5936840
p243
tp244
sV\u05d9\u05e7\u05d5\u05dd
p245
(V34.8419030
p246
V32.2491960
p247
tp248
sV\u05d2'\u05df
p249
(V35.3812680
p250
V32.9656550
p251
tp252
sV\u05e2\u05d5\u05de\u05e8
p253
(V34.8498640
p254
V31.2643050
p255
tp256
sV\u05d1\u05e8\u05d6\u05d9\u05dc
p257
(V-51.9252800
p258
V-14.2350040
p259
tp260
sV\u05e7\u05d9\u05d9\u05d1
p261
(V30.5234000
p262
V50.4501000
p263
tp264
sV\u05d0\u05e8\u05d5\u05d1\u05d4
p265
(V-69.9683380
p266
V12.5211100
p267
tp268
sV\u05ea\u05d5\u05e0\u05d9\u05e1\u05d9\u05d4
p269
(V9.5374990
p270
V33.8869170
p271
tp272
sV\u05d2\u05d3\u05e8\u05d4
p273
(V34.7770192
p274
V31.8123014
p275
tp276
sV\u05de\u05db\u05de\u05d5\u05e8\u05ea
p277
(V34.8715510
p278
V32.4065040
p279
tp280
sV\u05e0\u05ea\u05d9\u05d1\u05d5\u05ea
p281
(V34.5952540
p282
V31.4231960
p283
tp284
sV\u05d3\u05d5\u05d7\u05d4
p285
(V51.5310398
p286
V25.2854473
p287
tp288
sV\u05d1\u05d9\u05ea \u05dc\u05d7\u05dd
p289
(V35.2024425
p290
V31.7053821
p291
tp292
sV\u05e8\u05d5\u05de\u05d0
p293
(V12.4963655
p294
V41.9027835
p295
tp296
sV\u05d9\u05d2\u05d5\u05e8
p297
(V35.0768260
p298
V32.7415320
p299
tp300
sV\u05db\u05e4\u05e8 \u05d3\u05e0\u05d9\u05d0\u05dc
p301
(V34.9323060
p302
V31.9335210
p303
tp304
sV\u05db\u05e4\u05e8 \u05d7\u05e1\u05d9\u05d3\u05d9\u05dd \u05d0'
p305
(V35.0942120
p306
V32.7522620
p307
tp308
sV\u05dc\u05d5\u05d1
p309
(V17.2283310
p310
V26.3351000
p311
tp312
sV\u05e7\u05d3\u05d5\u05de\u05d9\u05dd
p313
(V35.1573880
p314
V32.2123900
p315
tp316
sV\u05d4\u05d0\u05d2
p317
(V4.3006999
p318
V52.0704978
p319
tp320
sV\u05e0\u05d9\u05d5 \u05d9\u05d5\u05e8\u05e7
p321
(V-74.0059413
p322
V40.7127837
p323
tp324
sV\u05dc\u05d5\u05e0\u05d3\u05d5\u05df
p325
(V-0.1277583
p326
V51.5073509
p327
tp328
sV\u05d7\u05d5\u05e3 \u05e9\u05d9\u05e7\u05de\u05d9\u05dd
p329
(V35.5587753
p330
V32.7604825
p331
tp332
sV\u05d2'\u05d3\u05d4
p333
(V39.2375507
p334
V21.2854067
p335
tp336
sV\u05d1\u05e8\u05d9\u05e1\u05dc
p337
(V4.3517103
p338
V50.8503396
p339
tp340
sV\u05d0\u05e8\u05d9\u05d6\u05d5\u05e0\u05d4
p341
(V-111.0937311
p342
V34.0489281
p343
tp344
sV\u05e2\u05ea\u05dc\u05d9\u05ea
p345
(V34.9429140
p346
V32.6908750
p347
tp348
sV\u05e4\u05e0\u05de\u05d4
p349
(V-80.7821270
p350
V8.5379810
p351
tp352
sV\u05d9\u05e4\u05df
p353
(V138.2529240
p354
V36.2048240
p355
tp356
sV\u05e8\u05d5\u05d0\u05d4
p357
(V2.7888310
p358
V49.6977970
p359
tp360
sV\u05d9\u05e4\u05d5
p361
(V34.7583550
p362
V32.0493570
p363
tp364
sV\u05de\u05e0\u05d5\u05ea
p365
(V35.1951560
p366
V33.0387090
p367
tp368
sV\u05d6\u05d9\u05de\u05e8\u05ea
p369
(V34.5522880
p370
V31.4478530
p371
tp372
sV\u05d0\u05d9\u05e8\u05d0\u05df
p373
(V53.6880460
p374
V32.4279080
p375
tp376
sV\u05de\u05d8\u05e2
p377
(V35.0605710
p378
V31.7165220
p379
tp380
sV\u05d1\u05d9\u05d9\u05e8\u05d5\u05ea
p381
(V35.5017767
p382
V33.8937913
p383
tp384
sV\u05d4\u05d9\u05de\u05d2'\u05d9
p385
(V134.6853528
p386
V34.8151490
p387
tp388
sV\u05d7\u05e8\u05d9\u05e9
p389
(V35.0455828
p390
V32.4618771
p391
tp392
sV\u05d4\u05d5\u05e0\u05d3\u05d5\u05e8\u05e1
p393
(V-86.2419050
p394
V15.1999990
p395
tp396
sV\u05d7\u05d5\u05e8\u05d4
p397
(V34.9356880
p398
V31.3003990
p399
tp400
sV\u05e1\u05e0\u05d8\u05d9\u05d0\u05d2\u05d5
p401
(V-70.6692655
p402
V-33.4488897
p403
tp404
sV\u05e8\u05df
p405
(V-1.6777926
p406
V48.1172660
p407
tp408
sV\u05e7\u05d9\u05e0\u05e9\u05d0\u05e1\u05d4
p409
(V15.2662931
p410
V-4.4419311
p411
tp412
sV\u05de\u05d9\u05e9\u05d9\u05d2\u05df
p413
(V-85.6023643
p414
V44.3148443
p415
tp416
sV\u05d0\u05d1\u05d9\u05d4
p417
(V7.5247243
p418
V5.4308921
p419
tp420
sV\u05d5\u05d9\u05e8\u05d2'\u05d9\u05e0\u05d9\u05d4
p421
(V-78.6568942
p422
V37.4315734
p423
tp424
sV\u05e9\u05de\u05e2\u05d4
p425
(V35.0126990
p426
V31.3873420
p427
tp428
sV\u05e7\u05e8\u05d9\u05ea \u05d0\u05e8\u05d1\u05e2
p429
(V35.1156250
p430
V31.5293260
p431
tp432
sV\u05d7\u05d9\u05e4\u05d4
p433
(V34.9895710
p434
V32.7940463
p435
tp436
sV\u05e7\u05d5\u05d1\u05d4
p437
(V-77.7811670
p438
V21.5217570
p439
tp440
sV\u05e9\u05d5\u05e8\u05e9\u05d9\u05dd
p441
(V35.2585600
p442
V32.8926510
p443
tp444
sV\u05e0\u05e4\u05d0\u05dc
p445
(V84.1240080
p446
V28.3948570
p447
tp448
sV\u05d0\u05d5\u05d2\u05e0\u05d3\u05d4
p449
(V32.2902750
p450
V1.3733330
p451
tp452
sV\u05de\u05d3\u05e8\u05d9\u05d3
p453
(V-3.7037902
p454
V40.4167754
p455
tp456
sV\u05d4\u05d9\u05de\u05dc\u05d0\u05d9\u05d4
p457
(V83.9310623
p458
V28.5983159
p459
tp460
sV\u05e7\u05d5\u05dc\u05d5\u05de\u05d1\u05d9\u05d4
p461
(V-74.2973330
p462
V4.5708680
p463
tp464
sV\u05e8\u05de\u05ea \u05d2\u05df
p465
(V34.8247850
p466
V32.0684240
p467
tp468
sV\u05e4\u05d9\u05e8\u05e0\u05e6\u05d4
p469
(V11.2558136
p470
V43.7695604
p471
tp472
sV\u05d0\u05d5\u05e8\u05d5\u05ea
p473
(V34.7356000
p474
V31.7403640
p475
tp476
sV\u05d3\u05d5\u05d5\u05e0\u05d9\u05d4
p477
(V27.5583738
p478
V43.2197379
p479
tp480
sV\u05d9\u05d5\u05d5\u05df
p481
(V21.8243120
p482
V39.0742080
p483
tp484
sV\u05e8\u05d9\u05d9\u05e0\u05d4
p485
(V35.3176540
p486
V32.7199240
p487
tp488
sV\u05d2\u05d5\u05dc\u05df
p489
(V35.7843540
p490
V33.0155854
p491
tp492
sV\u05de\u05d5\u05de\u05d1\u05d0\u05d9
p493
(V72.8776559
p494
V19.0759837
p495
tp496
sV\u05d2\u05d5\u05d0\u05d8\u05de\u05dc\u05d4
p497
(V-90.2307590
p498
V15.7834710
p499
tp500
sV\u05db\u05e4\u05e8 \u05d1\u05d9\u05dc"\u05d5
p501
(V34.8267340
p502
V31.8704750
p503
tp504
sV\u05e7\u05e4\u05e8\u05d9\u05e1\u05d9\u05df
p505
(V33.4298590
p506
V35.1264130
p507
tp508
sV\u05e7\u05de\u05d1\u05d5\u05d3\u05d9\u05d4
p509
(V104.9909630
p510
V12.5656790
p511
tp512
sV\u05de\u05e8\u05d7\u05d1\u05d9\u05dd
p513
(V34.5749882
p514
V31.3138394
p515
tp516
sV\u05d0\u05de\u05e8\u05d9\u05e7\u05d4
p517
(V-105.2551187
p518
V54.5259614
p519
tp520
sV\u05d2\u05e8\u05e0\u05d3\u05d4
p521
(V-3.5985571
p522
V37.1773363
p523
tp524
sV\u05e6\u05e4\u05ea
p525
(V35.4959970
p526
V32.9646480
p527
tp528
sV\u05db\u05d9\u05e0\u05e8\u05ea
p529
(V35.5879975
p530
V32.8244321
p531
tp532
sV\u05e4\u05dc\u05e1\u05d8\u05d9\u05df
p533
(V35.2331540
p534
V31.9521620
p535
tp536
sV\u05dc\u05d5\u05d3
p537
(V34.8880750
p538
V31.9510140
p539
tp540
sV\u05de\u05d5\u05e0\u05d8\u05d2\u05d5 \u05d1\u05d9\u05d9
p541
(V-77.8938895
p542
V18.4762228
p543
tp544
sV\u05d0\u05e9\u05db\u05d5\u05dc
p545
(V34.4641848
p546
V31.2068084
p547
tp548
sV\u05e9\u05d3\u05e8\u05d5\u05ea
p549
(V34.5955810
p550
V31.5226940
p551
tp552
sV\u05d4\u05d9\u05dd \u05d4\u05e9\u05d7\u05d5\u05e8
p553
(V34.2993160
p554
V43.4130290
p555
tp556
sV\u05d0\u05e4\u05e8\u05ea
p557
(V35.1499340
p558
V31.6535890
p559
tp560
sV\u05d1\u05e6\u05e8\u05d4
p561
(V34.8781230
p562
V32.2145410
p563
tp564
sV\u05de\u05d5\u05e1\u05e7\u05d1\u05d4
p565
(V37.6173000
p566
V55.7558260
p567
tp568
sV\u05d8\u05d0\u05d1\u05d4
p569
(V34.8968986
p570
V29.4924783
p571
tp572
sV\u05e8\u05d5\u05d5\u05d9\u05d4
p573
(V35.4731180
p574
V32.4486380
p575
tp576
sV\u05e0\u05d4\u05e8 \u05d4\u05d5\u05d5\u05dc\u05d2\u05d4
p577
(V41.7565500
p578
V51.9343958
p579
tp580
sV\u05d5\u05d9\u05e0\u05d4
p581
(V16.3738189
p582
V48.2081743
p583
tp584
sV\u05d3\u05dc\u05d4\u05d9
p585
(V77.1024902
p586
V28.7040592
p587
tp588
sV\u05d9\u05e8\u05d5\u05e9\u05dc\u05d9\u05dd
p589
(V35.2137100
p590
V31.7683190
p591
tp592
sV\u05d7\u05d3\u05e8\u05d4
p593
(V34.9196518
p594
V32.4340458
p595
tp596
sV\u05d8\u05d4\u05e8\u05df
p597
(V51.3889736
p598
V35.6891975
p599
tp600
sV\u05e0\u05d9\u05dc\u05d5\u05e1
p601
(V32.1382679
p602
V18.6984969
p603
tp604
sV\u05d9\u05e8\u05d3\u05df
p605
(V36.2384140
p606
V30.5851640
p607
tp608
sV\u05e1\u05d9\u05d1\u05d9\u05e8
p609
(V99.1966559
p610
V61.0137097
p611
tp612
sV\u05dc\u05d4
p613
(V77.5770535
p614
V34.1525864
p615
tp616
sV\u05d2\u05e8\u05de\u05e0\u05d9\u05d4
p617
(V10.4515260
p618
V51.1656910
p619
tp620
sV\u05e2\u05db\u05d5
p621
(V35.0826780
p622
V32.9330520
p623
tp624
sV\u05e6'\u05e9\u05d9\u05df
p625
(V18.6354709
p626
V49.7497638
p627
tp628
sV\u05ea\u05dc \u05de\u05d5\u05e0\u05d3
p629
(V34.9184600
p630
V32.2566080
p631
tp632
sV\u05d8\u05d5\u05e0\u05d9\u05e1
p633
(V10.1815316
p634
V36.8064948
p635
tp636
sV\u05d0\u05d9\u05e8\u05dc\u05e0\u05d3
p637
(V-8.2438900
p638
V53.4129100
p639
tp640
sV\u05d0\u05e4\u05e7
p641
(V35.1277800
p642
V32.8383160
p643
tp644
sV\u05de\u05e8\u05e1\u05d9\u05d9
p645
(V5.3697800
p646
V43.2964820
p647
tp648
sV\u05dc\u05d9\u05d8\u05d0
p649
(V23.8812750
p650
V55.1694380
p651
tp652
sV\u05dc\u05d5\u05e1 \u05d0\u05e0\u05d2'\u05dc\u05e1
p653
(V-118.2436849
p654
V34.0522342
p655
tp656
sV\u05d9\u05d5\u05e8\u05e7
p657
(V-1.0872979
p658
V53.9599651
p659
tp660
sV\u05d3\u05d2\u05e0\u05d9\u05d4 \u05d0'
p661
(V35.5750620
p662
V32.7069380
p663
tp664
sV\u05de\u05d9\u05ea\u05e8
p665
(V34.9432130
p666
V31.3270110
p667
tp668
sV\u05db\u05dc\u05db\u05d5\u05ea\u05d4
p669
(V88.3638950
p670
V22.5726460
p671
tp672
sV\u05d0\u05d7'\u05dc\u05d0\u05d8
p673
(V42.4870730
p674
V38.7552850
p675
tp676
sV\u05e8\u05d5\u05de\u05e0\u05d9\u05d4
p677
(V24.9667600
p678
V45.9431610
p679
tp680
sV\u05e9\u05dc\u05d5\u05de\u05d9
p681
(V35.1459450
p682
V33.0726090
p683
tp684
sV\u05de\u05d5\u05dc\u05d3\u05ea
p685
(V35.4389410
p686
V32.5861960
p687
tp688
sV\u05e2\u05de\u05e7 \u05d9\u05d6\u05e8\u05e2\u05d0\u05dc
p689
(V35.1928634
p690
V32.6362394
p691
tp692
sV\u05e7\u05d1\u05d5\u05dc
p693
(V69.2074860
p694
V34.5553494
p695
tp696
sV\u05d9\u05e9\u05e8\u05d0\u05dc
p697
(V34.8516120
p698
V31.0460510
p699
tp700
sV\u05d1\u05e8\u05d9\u05d8\u05e0\u05d9\u05d4
p701
(V-3.4359730
p702
V55.3780510
p703
tp704
sV\u05d5\u05d0\u05e8\u05e0\u05d4
p705
(V27.9147333
p706
V43.2140504
p707
tp708
sV\u05e8\u05de\u05d0\u05dc\u05dc\u05d4
p709
(V35.2034184
p710
V31.9037641
p711
tp712
sV\u05e2\u05d3\u05d9
p713
(V35.1734120
p714
V32.7823530
p715
tp716
sV\u05de\u05d5\u05d6\u05de\u05d1\u05d9\u05e7
p717
(V35.5295620
p718
V-18.6656950
p719
tp720
sV\u05e8\u05d5\u05e1\u05d9\u05d4
p721
(V105.3187560
p722
V61.5240100
p723
tp724
sV\u05d6\u05de\u05d1\u05d9\u05d4
p725
(V27.8493320
p726
V-13.1338970
p727
tp728
sV\u05d1\u05d0\u05e8 \u05e9\u05d1\u05e2
p729
(V34.7914620
p730
V31.2529730
p731
tp732
sV\u05de\u05d5\u05e0\u05d8\u05d4 \u05e7\u05e8\u05dc\u05d5
p733
(V7.4266436
p734
V43.7400718
p735
tp736
sV\u05d0\u05dc\u05d1\u05e0\u05d9\u05d4
p737
(V20.1683310
p738
V41.1533320
p739
tp740
sV\u05d0\u05d5\u05e1\u05dc\u05d5
p741
(V10.7522454
p742
V59.9138688
p743
tp744
sV\u05e2\u05d3\u05e0\u05d9\u05dd
p745
(V34.9091480
p746
V32.1387980
p747
tp748
sV\u05d1\u05d5\u05e1\u05d8\u05d5\u05df
p749
(V-71.0588801
p750
V42.3600825
p751
tp752
sV\u05e9\u05d5\u05d1\u05d4
p753
(V34.5454960
p754
V31.4499500
p755
tp756
sV\u05d4\u05db\u05e8\u05de\u05dc
p757
(V35.0483915
p758
V32.7427316
p759
tp760
sV\u05db\u05e8\u05de\u05dc
p761
(V35.0483915
p762
V32.7427316
p763
tp764
sV\u05d3\u05d7\u05d9
p765
(V35.3436040
p766
V32.6224910
p767
tp768
sV\u05e0\u05d4\u05dc\u05dc
p769
(V35.1960900
p770
V32.6908070
p771
tp772
sV\u05e7\u05e0\u05d3\u05d4
p773
(V-106.3467710
p774
V56.1303660
p775
tp776
sV\u05d2'\u05de\u05d9\u05d9\u05e7\u05d4
p777
(V-77.2975080
p778
V18.1095810
p779
tp780
sV\u05ea\u05d9\u05de\u05df
p781
(V48.5163880
p782
V15.5527270
p783
tp784
sV\u05d0\u05d5\u05e1\u05d8\u05e8\u05dc\u05d9\u05d4
p785
(V133.7751360
p786
V-25.2743980
p787
tp788
sV\u05d0\u05d5\u05d3\u05d9\u05dd
p789
(V34.8469950
p790
V32.2668650
p791
tp792
sV\u05de\u05d9 \u05e2\u05de\u05d9
p793
(V35.1464250
p794
V32.5049630
p795
tp796
sV\u05d1\u05d0\u05d6\u05dc
p797
(V7.5885761
p798
V47.5595986
p799
tp800
sV\u05d0\u05d5\u05d3\u05dd
p801
(V35.7495651
p802
V33.1933716
p803
tp804
sV\u05e8\u05e2\u05e0\u05e0\u05d4
p805
(V34.8713260
p806
V32.1847810
p807
tp808
sV\u05db\u05e0\u05e3
p809
(V35.6978970
p810
V32.8704120
p811
tp812
sV\u05e0\u05d5\u05e8\u05d5\u05d5\u05d2\u05d9\u05d4
p813
(V8.4689460
p814
V60.4720240
p815
tp816
sV\u05d0\u05de\u05e1\u05d8\u05e8\u05d3\u05dd
p817
(V4.8951679
p818
V52.3702157
p819
tp820
sV\u05e9\u05db\u05dd
p821
(V35.2621461
p822
V32.2226678
p823
tp824
sV\u05de\u05e6\u05e8\u05d9\u05dd
p825
(V30.8024980
p826
V26.8205530
p827
tp828
sV\u05e0\u05e6\u05e8\u05ea
p829
(V35.3035460
p830
V32.6996350
p831
tp832
sV\u05d3\u05d1\u05dc\u05d9\u05df
p833
(V-6.2603097
p834
V53.3498053
p835
tp836
sV\u05d3\u05d5\u05ea\u05df
p837
(V-85.3904888
p838
V31.2232313
p839
tp840
sV\u05e8\u05db\u05e1\u05d9\u05dd
p841
(V35.0995810
p842
V32.7492650
p843
tp844
sV\u05d8\u05d9\u05d9\u05d5\u05d5\u05d0\u05df
p845
(V120.9605150
p846
V23.6978100
p847
tp848
sV\u05d8\u05e0\u05d6\u05e0\u05d9\u05d4
p849
(V34.8888220
p850
V-6.3690280
p851
tp852
sV\u05d1\u05d5\u05d3\u05e4\u05e9\u05d8
p853
(V19.0402350
p854
V47.4979120
p855
tp856
sV\u05d5\u05e0\u05e6\u05d5\u05d0\u05dc\u05d4
p857
(V-66.5897300
p858
V6.4237500
p859
tp860
sV\u05d4\u05d5\u05e0\u05d2\u05e8\u05d9\u05d4
p861
(V19.5033041
p862
V47.1624940
p863
tp864
sV\u05d1\u05d5\u05dc\u05d9\u05d1\u05d9\u05d4
p865
(V-63.5886530
p866
V-16.2901540
p867
tp868
sV\u05d5\u05e8\u05e1\u05d0\u05d9
p869
(V2.1301220
p870
V48.8014080
p871
tp872
sV\u05d2'\u05d6\u05d9\u05df
p873
(V35.5862413
p874
V33.5408370
p875
tp876
sV\u05d0\u05dc\u05d9\u05d9\u05d4
p877
(V3.4167655
p878
V46.3115552
p879
tp880
sV\u05e2\u05e4\u05d5\u05dc\u05d4
p881
(V35.2879220
p882
V32.6104931
p883
tp884
sV\u05d1\u05d9\u05ea \u05e9\u05de\u05e9
p885
(V34.9880990
p886
V31.7470410
p887
tp888
sV\u05d7\u05e8\u05d8\u05d5\u05dd
p889
(V32.5598994
p890
V15.5006544
p891
tp892
sV\u05e9\u05e0\u05d2\u05d7\u05d0\u05d9
p893
(V121.4737021
p894
V31.2303904
p895
tp896
sV\u05e1\u05df \u05e4\u05e8\u05e0\u05e1\u05d9\u05e1\u05e7\u05d5
p897
(V-122.4194155
p898
V37.7749295
p899
tp900
sV\u05d0\u05d5\u05e9\u05e8\u05ea
p901
(V35.1557000
p902
V32.9716450
p903
tp904
sV\u05e1\u05d1\u05d9\u05dc\u05d9\u05d4
p905
(V-5.9844589
p906
V37.3890924
p907
tp908
sV\u05dc\u05d9\u05d5\u05df
p909
(V4.8356590
p910
V45.7640430
p911
tp912
sV\u05d3\u05d5\u05d1\u05d0\u05d9
p913
(V55.4028680
p914
V24.9821547
p915
tp916
sV\u05d9\u05dc
p917
(V-1.0991234
p918
V60.5543392
p919
tp920
sV\u05d0\u05dc\u05d5\u05de\u05d5\u05ea
p921
(V35.5460880
p922
V32.7066280
p923
tp924
sV\u05db\u05e4\u05e8 \u05d1\u05e8\u05d5\u05da
p925
(V35.1930780
p926
V32.6460480
p927
tp928
sV\u05db\u05e8\u05de\u05d9\u05d0\u05dc
p929
(V35.2924170
p930
V32.9146710
p931
tp932
sV\u05db\u05e0\u05e8\u05ea
p933
(V35.5879975
p934
V32.8244321
p935
tp936
sV\u05e1\u05e4\u05e8\u05d3
p937
(V-3.7492200
p938
V40.4636670
p939
tp940
sV\u05e2\u05e8\u05d5\u05d2\u05d5\u05ea
p941
(V34.7762400
p942
V31.7327980
p943
tp944
sV\u05d7\u05d5\u05dc\u05d5\u05df
p945
(V34.7873840
p946
V32.0158330
p947
tp948
sV\u05e1\u05d9\u05df
p949
(V104.1953970
p950
V35.8616600
p951
tp952
sV\u05d1\u05e0\u05d9 \u05d1\u05e8\u05e7
p953
(V34.8352260
p954
V32.0849320
p955
tp956
sV\u05e2\u05dc\u05d9
p957
(V35.2668590
p958
V32.0711770
p959
tp960
sV\u05d1\u05d5\u05dc\u05d2\u05e8\u05d9\u05d4
p961
(V25.4858300
p962
V42.7338830
p963
tp964
sV\u05d7\u05de\u05d3
p965
(V34.8412650
p966
V32.0179920
p967
tp968
sV\u05d4\u05d9\u05dd \u05d4\u05ea\u05d9\u05db\u05d5\u05df
p969
(V18.0480105
p970
V34.5531284
p971
tp972
sV\u05d0\u05d5\u05de\u05df
p973
(V30.2154406
p974
V48.7699292
p975
tp976
sV\u05de\u05d5\u05e0\u05d8\u05e8\u05d9\u05d0\u05d5\u05dc
p977
(V-73.5672560
p978
V45.5016889
p979
tp980
sV\u05d4\u05de\u05d6\u05e8\u05d7 \u05d4\u05ea\u05d9\u05db\u05d5\u05df
p981
(V42.5509603
p982
V29.2985278
p983
tp984
sV\u05d0\u05de\u05d5\u05e0\u05d9\u05dd
p985
(V34.6744920
p986
V31.7438850
p987
tp988
sV\u05de\u05e0\u05d5\u05d7\u05d4
p989
(V34.7772730
p990
V31.6561590
p991
tp992
sV\u05dc\u05d5\u05d0\u05d9\u05d6\u05d9\u05d0\u05e0\u05d4
p993
(V-91.9623327
p994
V30.9842977
p995
tp996
sV\u05d7\u05d1\u05e8
p997
(V35.2649110
p998
V32.5490970
p999
tp1000
sV\u05e0\u05d4\u05e8 \u05d4\u05d9\u05e8\u05d3\u05df
p1001
(V35.5657387
p1002
V32.4670843
p1003
tp1004
sV\u05de\u05e6\u05e4\u05d4
p1005
(V35.5078510
p1006
V32.7899730
p1007
tp1008
sV\u05d0\u05d5\u05d4\u05d9\u05d5
p1009
(V-82.9071230
p1010
V40.4172871
p1011
tp1012
sV\u05e0\u05e9\u05e8
p1013
(V35.0491910
p1014
V32.7649000
p1015
tp1016
sV\u05de\u05d8\u05d5\u05dc\u05d4
p1017
(V35.5782350
p1018
V33.2772320
p1019
tp1020
sV\u05e7\u05d4\u05d9\u05e8
p1021
(V31.2357116
p1022
V30.0444196
p1023
tp1024
sV\u05e9\u05e7\u05d3
p1025
(V35.1684480
p1026
V32.4737450
p1027
tp1028
sV\u05d0\u05e9\u05d3\u05d5\u05d3
p1029
(V34.6553140
p1030
V31.8043810
p1031
tp1032
sV\u05d1\u05d2\u05d3\u05d0\u05d3
p1033
(V44.3614875
p1034
V33.3128057
p1035
tp1036
sV\u05d0\u05e1\u05e7\u05d5\u05d8
p1037
(V-0.6755624
p1038
V51.4062365
p1039
tp1040
sV\u05e4\u05d5\u05dc\u05d9\u05df
p1041
(V19.1451360
p1042
V51.9194380
p1043
tp1044
sV\u05d1\u05e8\u05dc\u05d9\u05df
p1045
(V13.4049540
p1046
V52.5200066
p1047
tp1048
sV\u05d0\u05dc\u05d1\u05e8\u05d8\u05d4
p1049
(V-116.5765035
p1050
V53.9332706
p1051
tp1052
sV\u05d1\u05d9\u05ea \u05d2\u05d5\u05d1\u05e8\u05d9\u05df
p1053
(V34.8954640
p1054
V31.6016310
p1055
tp1056
sV\u05d5\u05e8\u05e9\u05d4
p1057
(V21.0122287
p1058
V52.2296756
p1059
tp1060
sV\u05d9\u05d1\u05e0\u05d4
p1061
(V34.7394490
p1062
V31.8779580
p1063
tp1064
sV\u05d3\u05d5\u05e8\u05d5\u05ea
p1065
(V34.6457250
p1066
V31.5072070
p1067
tp1068
sV\u05e0\u05d4\u05e8\u05d9\u05d4
p1069
(V35.0980514
p1070
V33.0085361
p1071
tp1072
sV\u05d1\u05e8\u05de\u05d5\u05d3\u05d4
p1073
(V-64.7505000
p1074
V32.3078000
p1075
tp1076
sV\u05de\u05dc\u05d6\u05d9\u05d4
p1077
(V101.9757660
p1078
V4.2104840
p1079
tp1080
sV\u05de\u05e7\u05e1\u05d9\u05e7\u05d5
p1081
(V-102.5527840
p1082
V23.6345010
p1083
tp1084
sV\u05de\u05d1\u05e9\u05e8\u05ea \u05e6\u05d9\u05d5\u05df
p1085
(V35.1578910
p1086
V31.8040520
p1087
tp1088
sV\u05e8\u05e4\u05d9\u05d7
p1089
(V34.2434820
p1090
V31.2967800
p1091
tp1092
sV\u05d1\u05e0\u05d9\u05df
p1093
(V2.3158340
p1094
V9.3076900
p1095
tp1096
sV\u05e7\u05d5\u05e4\u05e0\u05d4\u05d2\u05df
p1097
(V12.5683372
p1098
V55.6760968
p1099
tp1100
sV\u05d6\u05de\u05e8
p1101
(V35.0346510
p1102
V32.3656840
p1103
tp1104
sV\u05d0\u05d9\u05e1\u05d8\u05e0\u05d1\u05d5\u05dc
p1105
(V28.9783589
p1106
V41.0082376
p1107
tp1108
sV\u05d9\u05e8\u05d9\u05d7\u05d5
p1109
(V35.4617583
p1110
V31.8611058
p1111
tp1112
sV\u05dc\u05d9\u05e1\u05d1\u05d5\u05df
p1113
(V-9.1393366
p1114
V38.7222524
p1115
tp1116
sV\u05db\u05e4\u05e8 \u05e9\u05de\u05e8\u05d9\u05d4\u05d5
p1117
(V34.8231240
p1118
V32.1871230
p1119
tp1120
sV\u05e0\u05e2\u05dc\u05d4
p1121
(V35.0659760
p1122
V31.9625940
p1123
tp1124
sV\u05e0\u05d9\u05d5 \u05d0\u05d5\u05e8\u05dc\u05d9\u05e0\u05e1
p1125
(V-90.0715323
p1126
V29.9510658
p1127
tp1128
sV\u05dc\u05db\u05d9\u05e9
p1129
(V34.8440900
p1130
V31.5609070
p1131
tp1132
sV\u05e8\u05d7\u05d5\u05d1\u05d5\u05ea
p1133
(V34.8112720
p1134
V31.8927730
p1135
tp1136
sV\u05d0\u05dc\u05d1\u05de\u05d4
p1137
(V-86.9022980
p1138
V32.3182314
p1139
tp1140
sV\u05e7\u05d5\u05dd
p1141
(V50.8759419
p1142
V34.6399443
p1143
tp1144
sV\u05d0\u05d9\u05d8\u05dc\u05d9\u05d4
p1145
(V12.5673800
p1146
V41.8719400
p1147
tp1148
sV\u05e0\u05d9\u05d5 \u05d2'\u05e8\u05e1\u05d9
p1149
(V-74.4056612
p1150
V40.0583238
p1151
tp1152
sV\u05e6\u05e8\u05e4\u05ea
p1153
(V2.2137490
p1154
V46.2276380
p1155
tp1156
sV\u05d3\u05d9 \u05d5\u05d0\u05d9
p1157
(V151.2854000
p1158
V-33.7544000
p1159
tp1160
sV\u05d2\u05e2\u05e9
p1161
(V34.8244110
p1162
V32.2284770
p1163
tp1164
sV\u05e8\u05de\u05ea \u05d4\u05e9\u05e8\u05d5\u05df
p1165
(V34.8402780
p1166
V32.1377930
p1167
tp1168
sV\u05d7\u05d1\u05e8\u05d5\u05df
p1169
(V35.0998260
p1170
V31.5325690
p1171
tp1172
sV\u05d0\u05dc\u05e2\u05d3
p1173
(V34.9507500
p1174
V32.0495300
p1175
tp1176
sV\u05db\u05e4\u05e8 \u05d7\u05d9\u05d9\u05dd
p1177
(V34.9007090
p1178
V32.3538570
p1179
tp1180
sV\u05d4\u05e8 \u05e0\u05d1\u05d5
p1181
(V35.7252775
p1182
V31.7683320
p1183
tp1184
sV\u05ea\u05dc \u05d0\u05d1\u05d9\u05d1 \u05d9\u05e4\u05d5
p1185
(V34.7817676
p1186
V32.0852999
p1187
tp1188
sV\u05e8\u05de\u05dc\u05d4
p1189
(V34.8729380
p1190
V31.9315660
p1191
tp1192
sV\u05d1\u05d5\u05e7\u05e8\u05e9\u05d8
p1193
(V26.1025384
p1194
V44.4267674
p1195
tp1196
sV\u05d4\u05e8 \u05d4\u05d2\u05dc\u05d1\u05d5\u05e2
p1197
(V35.4213702
p1198
V32.4824770
p1199
tp1200
sV\u05e8\u05d9\u05d9\u05d0\u05d5
p1201
(V101.7068294
p1202
V0.2933469
p1203
tp1204
sV\u05e9\u05d9\u05d1\u05d5\u05dc\u05d9\u05dd
p1205
(V34.6081440
p1206
V31.3963980
p1207
tp1208
sV\u05de\u05d3\u05d2\u05e1\u05e7\u05e8
p1209
(V46.8691070
p1210
V-18.7669470
p1211
tp1212
sV\u05d0\u05ea\u05d5\u05e0\u05d4
p1213
(V23.7275388
p1214
V37.9838096
p1215
tp1216
sV\u05d4\u05e0\u05d2\u05d1
p1217
(V34.8757476
p1218
V30.7140861
p1219
tp1220
sV\u05d0\u05e0\u05d2\u05dc\u05d9\u05d4
p1221
(V-1.1743197
p1222
V52.3555177
p1223
tp1224
sV\u05e4\u05d9\u05dc\u05d3\u05dc\u05e4\u05d9\u05d4
p1225
(V-75.1652215
p1226
V39.9525839
p1227
tp1228
sV\u05d1\u05e6\u05ea
p1229
(V35.1326360
p1230
V33.0700470
p1231
tp1232
sV\u05e1\u05d5\u05e1\u05d4
p1233
(V10.6083950
p1234
V35.8256030
p1235
tp1236
sV\u05de\u05e8\u05d5\u05e7\u05d5
p1237
(V-7.0926200
p1238
V31.7917020
p1239
tp1240
sV\u05de\u05e6\u05e4\u05d4 \u05e8\u05de\u05d5\u05df
p1241
(V34.8018980
p1242
V30.6102030
p1243
tp1244
sV\u05d0\u05e8\u05e8\u05d8
p1245
(V44.2990761
p1246
V39.7024393
p1247
tp1248
sV\u05e7\u05d0\u05df
p1249
(V7.0173690
p1250
V43.5528470
p1251
tp1252
sV\u05d8\u05d9\u05e8\u05d4
p1253
(V34.9505060
p1254
V32.2354660
p1255
tp1256
sV\u05d2\u05dc\u05e2\u05d3
p1257
(V35.0765590
p1258
V32.5580750
p1259
tp1260
sV\u05e1\u05d5\u05e8\u05d9\u05d4
p1261
(V38.9968150
p1262
V34.8020750
p1263
tp1264
sV\u05e2\u05d9\u05e1\u05e4\u05d9\u05d0
p1265
(V35.0590870
p1266
V32.7207370
p1267
tp1268
sV\u05db\u05d9\u05e1\u05d5\u05e4\u05d9\u05dd
p1269
(V34.3989920
p1270
V31.3745450
p1271
tp1272
sV\u05d0\u05d9\u05dc\u05ea
p1273
(V34.9519250
p1274
V29.5576690
p1275
tp1276
sV\u05d4\u05e9\u05e8\u05d5\u05df
p1277
(V34.9286096
p1278
V32.3235643
p1279
tp1280
sV\u05de\u05d9\u05d9\u05df
p1281
(V-69.4454689
p1282
V45.2537830
p1283
tp1284
sV\u05d1\u05d9\u05ea \u05e9\u05d0\u05df
p1285
(V35.4973360
p1286
V32.4971030
p1287
tp1288
sV\u05d0\u05d5\u05d3\u05e1\u05d4
p1289
(V30.7233095
p1290
V46.4825260
p1291
tp1292
sV\u05e1\u05d1\u05d9\u05d5\u05df
p1293
(V34.8765780
p1294
V32.0455890
p1295
tp1296
sV\u05d3\u05de\u05e9\u05e7
p1297
(V36.2765279
p1298
V33.5138073
p1299
tp1300
sV\u05d0\u05d3\u05d9\u05e8\u05d9\u05dd
p1301
(V35.2716370
p1302
V32.5489410
p1303
tp1304
sV\u05e4\u05d9\u05d2\u05e8\u05e1
p1305
(V2.9581046
p1306
V42.2655066
p1307
tp1308
sV\u05d9\u05e4\u05d9\u05ea
p1309
(V35.4743170
p1310
V32.0626870
p1311
tp1312
sV\u05de\u05d9\u05dc\u05d0\u05e0\u05d5
p1313
(V9.1899820
p1314
V45.4642035
p1315
tp1316
sV\u05e8\u05d2\u05d1\u05d4
p1317
(V35.0991290
p1318
V32.9774930
p1319
tp1320
sV\u05e2\u05de\u05e0\u05d5\u05d0\u05dc
p1321
(V35.1360360
p1322
V32.1606880
p1323
tp1324
sV\u05e8\u05de\u05ea \u05d9\u05e9\u05d9
p1325
(V35.1660030
p1326
V32.7040290
p1327
tp1328
sV\u05e2\u05d6\u05d4
p1329
(V34.4668445
p1330
V31.5016951
p1331
tp1332
sV\u05d4\u05d5\u05d3 \u05d4\u05e9\u05e8\u05d5\u05df
p1333
(V34.8838788
p1334
V32.1499610
p1335
tp1336
sV\u05e1\u05d9\u05e6\u05d9\u05dc\u05d9\u05d4
p1337
(V14.0153557
p1338
V37.5999938
p1339
tp1340
sV\u05e9\u05d5\u05de\u05e8\u05d5\u05df
p1341
(V35.3027226
p1342
V32.4228770
p1343
tp1344
sV\u05d9\u05dd \u05db\u05e0\u05e8\u05ea
p1345
(V35.5879975
p1346
V32.8244321
p1347
tp1348
sV\u05d9\u05d5\u05e7\u05e0\u05e2\u05dd
p1349
(V35.1046060
p1350
V32.6602250
p1351
tp1352
sV\u05d4\u05d0\u05d9\u05d8\u05d9
p1353
(V-72.2852150
p1354
V18.9711870
p1355
tp1356
sV\u05e1\u05d0\u05e8
p1357
(V6.8470129
p1358
V49.1962115
p1359
tp1360
sV\u05d2\u05d1\u05e2\u05ea\u05d9\u05d9\u05dd
p1361
(V34.8088710
p1362
V32.0721760
p1363
tp1364
sV\u05de\u05e0\u05d4\u05d8\u05df
p1365
(V-73.9712488
p1366
V40.7830603
p1367
tp1368
sV\u05e2\u05d6\u05e8
p1369
(V34.6714470
p1370
V31.7361510
p1371
tp1372
sV\u05ea\u05e7\u05d5\u05e2
p1373
(V35.2275170
p1374
V31.6527850
p1375
tp1376
sV\u05e0\u05e8\u05d7\u05d4
p1377
(V-3.8044831
p1378
V36.7859161
p1379
tp1380
sV\u05d1\u05e0\u05d9\u05de\u05d9\u05e0\u05d4
p1381
(V34.9550960
p1382
V32.5170780
p1383
tp1384
sV\u05d8\u05d5\u05e7\u05d9\u05d5
p1385
(V139.6917064
p1386
V35.6894875
p1387
tp1388
sV\u05d2'\u05d9\u05e9
p1389
(V35.4479490
p1390
V33.0212660
p1391
tp1392
sV\u05e9\u05d5\u05d5\u05d9\u05d9\u05e5
p1393
(V8.2275120
p1394
V46.8181880
p1395
tp1396
sV\u05d2'\u05d9\u05d1\u05d5\u05d8\u05d9
p1397
(V42.5902750
p1398
V11.8251380
p1399
tp1400
sV\u05e4\u05ea\u05d7 \u05ea\u05e7\u05d5\u05d5\u05d4
p1401
(V34.8877620
p1402
V32.0840410
p1403
tp1404
sV\u05d4\u05e8\u05d3\u05d5\u05e3
p1405
(V35.1746630
p1406
V32.7637170
p1407
tp1408
sV\u05e8\u05d1\u05d9\u05d1\u05d9\u05dd
p1409
(V34.7210860
p1410
V31.0451950
p1411
tp1412
sV\u05d4\u05e8 \u05d7\u05e8\u05de\u05d5\u05df
p1413
(V35.8570262
p1414
V33.4161617
p1415
tp1416
sV\u05d4\u05d5\u05e0\u05d2 \u05e7\u05d5\u05e0\u05d2
p1417
(V114.1094970
p1418
V22.3964280
p1419
tp1420
sV\u05d4\u05d0\u05e0\u05d5\u05d9
p1421
(V105.8341598
p1422
V21.0277644
p1423
tp1424
sV\u05d0\u05d5\u05e8\u05d5\u05d2\u05d5\u05d5\u05d0\u05d9
p1425
(V-55.7658350
p1426
V-32.5227790
p1427
tp1428
sV\u05d0\u05e9\u05ea\u05d0\u05d5\u05dc
p1429
(V35.0101020
p1430
V31.7803850
p1431
tp1432
sV\u05d8\u05d1\u05e8\u05d9\u05d4
p1433
(V35.5309730
p1434
V32.7958590
p1435
tp1436
sV\u05e4\u05e8\u05d0\u05d2
p1437
(V14.4378005
p1438
V50.0755381
p1439
tp1440
sV\u05d9\u05e9\u05e2
p1441
(V34.4030910
p1442
V31.2475950
p1443
tp1444
sV\u05d0\u05e8\u05d2\u05e0\u05d8\u05d9\u05e0\u05d4
p1445
(V-63.6166720
p1446
V-38.4160970
p1447
tp1448
sV\u05e8\u05d0\u05e9\u05d5\u05df \u05dc\u05e6\u05d9\u05d5\u05df
p1449
(V34.7925013
p1450
V31.9730015
p1451
tp1452
sV\u05e4\u05e8\u05d9\u05d6
p1453
(V2.3522219
p1454
V48.8566140
p1455
tp1456
sV\u05e0\u05d5\u05d5\u05e8
p1457
(V3.1628450
p1458
V46.9908960
p1459
tp1460
sV\u05d0\u05d1\u05d9\u05d1\u05d9\u05dd
p1461
(V35.4703380
p1462
V33.0893810
p1463
tp1464
sV\u05d4\u05de\u05d1\u05d5\u05e8\u05d2
p1465
(V9.9936818
p1466
V53.5510846
p1467
tp1468
sV\u05d0\u05dc-\u05e2\u05e8\u05d9\u05e9
p1469
(V33.8032762
p1470
V31.1320930
p1471
tp1472
sV\u05e2\u05dc\u05de\u05d4
p1473
(V35.4996360
p1474
V33.0518600
p1475
tp1476
sV\u05e7\u05d3\u05e8\u05d5\u05df
p1477
(V34.7955480
p1478
V31.8141420
p1479
tp1480
sV\u05e4\u05e7\u05d9\u05e2\u05d9\u05df
p1481
(V35.3357940
p1482
V32.9762090
p1483
tp1484
sV\u05dc\u05d1\u05e0\u05d5\u05df
p1485
(V35.8622850
p1486
V33.8547210
p1487
tp1488
sV\u05d2'\u05d0\u05e0\u05d9\u05d4
p1489
(V35.1239840
p1490
V31.9384190
p1491
tp1492
sV\u05d8\u05d5\u05e8\u05e7\u05d9\u05d4
p1493
(V35.2433220
p1494
V38.9637450
p1495
tp1496
sV\u05d9\u05e2\u05e8\u05d4
p1497
(V35.1860800
p1498
V33.0680130
p1499
tp1500
sV\u05e0\u05e1 \u05e6\u05d9\u05d5\u05e0\u05d4
p1501
(V34.8013270
p1502
V31.9321110
p1503
tp1504
sV\u05de\u05d8\u05d4 \u05d1\u05e0\u05d9\u05de\u05d9\u05df
p1505
(V35.1708741
p1506
V31.9485955
p1507
tp1508
sV\u05d5\u05e0\u05e6\u05d9\u05d4
p1509
(V12.3155151
p1510
V45.4408474
p1511
tp1512
sV\u05ea\u05d0\u05d9\u05dc\u05e0\u05d3
p1513
(V100.9925410
p1514
V15.8700320
p1515
tp1516
sV\u05d2'\u05e0\u05d9\u05df
p1517
(V35.2938591
p1518
V32.4646353
p1519
tp1520
s.